; ModuleID = '58/979.c'
source_filename = "58/979.c"
target datalayout = "e-m:e-p270:32:32-p271:32:32-p272:64:64-i64:64-f80:128-n8:16:32:64-S128"
target triple = "x86_64-pc-linux-gnu"

@.str = private unnamed_addr constant [3 x i8] c"%d\00", align 1
@.str.1 = private unnamed_addr constant [4 x i8] c"%d\0A\00", align 1

; Function Attrs: noinline nounwind uwtable
define dso_local i32 @main() #0 {
  %1 = alloca i32, align 4
  %2 = alloca i32, align 4
  %3 = alloca i32, align 4
  %4 = alloca i32, align 4
  %5 = alloca i32, align 4
  %6 = alloca i32, align 4
  %7 = alloca [81 x i8], align 16
  %8 = alloca i8*, align 8
  store i32 0, i32* %1, align 4
  %9 = getelementptr inbounds [81 x i8], [81 x i8]* %7, i64 0, i64 0
  store i8* %9, i8** %8, align 8
  %10 = call i32 (i8*, ...) @__isoc99_scanf(i8* getelementptr inbounds ([3 x i8], [3 x i8]* @.str, i64 0, i64 0), i32* %2)
  %11 = call i32 @getchar()
  store i32 0, i32* %4, align 4
  br label %12

12:                                               ; preds = %102, %0
  %13 = load i32, i32* %4, align 4
  %14 = load i32, i32* %2, align 4
  %15 = icmp slt i32 %13, %14
  br i1 %15, label %16, label %105

16:                                               ; preds = %12
  store i32 1, i32* %6, align 4
  %17 = getelementptr inbounds [81 x i8], [81 x i8]* %7, i64 0, i64 0
  %18 = call i32 (i8*, ...) bitcast (i32 (...)* @gets to i32 (i8*, ...)*)(i8* %17)
  %19 = getelementptr inbounds [81 x i8], [81 x i8]* %7, i64 0, i64 0
  %20 = call i64 @strlen(i8* %19) #3
  %21 = trunc i64 %20 to i32
  store i32 %21, i32* %3, align 4
  %22 = load i8*, i8** %8, align 8
  %23 = load i8, i8* %22, align 1
  %24 = sext i8 %23 to i32
  %25 = icmp sge i32 %24, 48
  br i1 %25, label %26, label %32

26:                                               ; preds = %16
  %27 = load i8*, i8** %8, align 8
  %28 = load i8, i8* %27, align 1
  %29 = sext i8 %28 to i32
  %30 = icmp sle i32 %29, 57
  br i1 %30, label %31, label %32

31:                                               ; preds = %26
  store i32 0, i32* %6, align 4
  br label %99

32:                                               ; preds = %26, %16
  store i32 0, i32* %5, align 4
  br label %33

33:                                               ; preds = %95, %32
  %34 = load i32, i32* %5, align 4
  %35 = load i32, i32* %3, align 4
  %36 = icmp slt i32 %34, %35
  br i1 %36, label %37, label %98

37:                                               ; preds = %33
  %38 = load i8*, i8** %8, align 8
  %39 = load i32, i32* %5, align 4
  %40 = sext i32 %39 to i64
  %41 = getelementptr inbounds i8, i8* %38, i64 %40
  %42 = load i8, i8* %41, align 1
  %43 = sext i8 %42 to i32
  %44 = icmp eq i32 %43, 95
  br i1 %44, label %94, label %45

45:                                               ; preds = %37
  %46 = load i8*, i8** %8, align 8
  %47 = load i32, i32* %5, align 4
  %48 = sext i32 %47 to i64
  %49 = getelementptr inbounds i8, i8* %46, i64 %48
  %50 = load i8, i8* %49, align 1
  %51 = sext i8 %50 to i32
  %52 = icmp sgt i32 %51, 96
  br i1 %52, label %53, label %61

53:                                               ; preds = %45
  %54 = load i8*, i8** %8, align 8
  %55 = load i32, i32* %5, align 4
  %56 = sext i32 %55 to i64
  %57 = getelementptr inbounds i8, i8* %54, i64 %56
  %58 = load i8, i8* %57, align 1
  %59 = sext i8 %58 to i32
  %60 = icmp slt i32 %59, 123
  br i1 %60, label %94, label %61

61:                                               ; preds = %53, %45
  %62 = load i8*, i8** %8, align 8
  %63 = load i32, i32* %5, align 4
  %64 = sext i32 %63 to i64
  %65 = getelementptr inbounds i8, i8* %62, i64 %64
  %66 = load i8, i8* %65, align 1
  %67 = sext i8 %66 to i32
  %68 = icmp sgt i32 %67, 47
  br i1 %68, label %69, label %77

69:                                               ; preds = %61
  %70 = load i8*, i8** %8, align 8
  %71 = load i32, i32* %5, align 4
  %72 = sext i32 %71 to i64
  %73 = getelementptr inbounds i8, i8* %70, i64 %72
  %74 = load i8, i8* %73, align 1
  %75 = sext i8 %74 to i32
  %76 = icmp slt i32 %75, 58
  br i1 %76, label %94, label %77

77:                                               ; preds = %69, %61
  %78 = load i8*, i8** %8, align 8
  %79 = load i32, i32* %5, align 4
  %80 = sext i32 %79 to i64
  %81 = getelementptr inbounds i8, i8* %78, i64 %80
  %82 = load i8, i8* %81, align 1
  %83 = sext i8 %82 to i32
  %84 = icmp sgt i32 %83, 64
  br i1 %84, label %85, label %93

85:                                               ; preds = %77
  %86 = load i8*, i8** %8, align 8
  %87 = load i32, i32* %5, align 4
  %88 = sext i32 %87 to i64
  %89 = getelementptr inbounds i8, i8* %86, i64 %88
  %90 = load i8, i8* %89, align 1
  %91 = sext i8 %90 to i32
  %92 = icmp slt i32 %91, 91
  br i1 %92, label %94, label %93

93:                                               ; preds = %85, %77
  store i32 0, i32* %6, align 4
  br label %94

94:                                               ; preds = %93, %85, %69, %53, %37
  br label %95

95:                                               ; preds = %94
  %96 = load i32, i32* %5, align 4
  %97 = add nsw i32 %96, 1
  store i32 %97, i32* %5, align 4
  br label %33

98:                                               ; preds = %33
  br label %99

99:                                               ; preds = %98, %31
  %100 = load i32, i32* %6, align 4
  %101 = call i32 (i8*, ...) @printf(i8* getelementptr inbounds ([4 x i8], [4 x i8]* @.str.1, i64 0, i64 0), i32 %100)
  br label %102

102:                                              ; preds = %99
  %103 = load i32, i32* %4, align 4
  %104 = add nsw i32 %103, 1
  store i32 %104, i32* %4, align 4
  br label %12

105:                                              ; preds = %12
  ret i32 0
}

declare dso_local i32 @__isoc99_scanf(i8*, ...) #1

declare dso_local i32 @getchar() #1

declare dso_local i32 @gets(...) #1

; Function Attrs: nounwind readonly
declare dso_local i64 @strlen(i8*) #2

declare dso_local i32 @printf(i8*, ...) #1


!llvm.module.flags = !{!0}
!llvm.ident = !{!1}

!0 = !{i32 1, !"wchar_size", i32 4}
!1 = !{!"clang version 10.0.0-4ubuntu1 "}
